; Function Attrs: mustprogress nounwind uwtable
define dso_local void @_ZN4llvm3Loc6SingleC2ENS_11DbgValueLocE(ptr noundef nonnull writeonly align 8 captures(none) dereferenceable(16) initializes((0, 16)) %0, ptr noundef %1) unnamed_addr #0 align 2 {
  tail call void @llvm.experimental.noalias.scope.decl(metadata !32)
  %3 = tail call noalias noundef nonnull dereferenceable(80) ptr @_Znwm(i64 noundef 80) #28, !noalias !32
  %4 = load ptr, ptr %1, align 8, !noalias !32
  store ptr %4, ptr %3, align 8, !noalias !32
  %5 = getelementptr inbounds nuw i8, ptr %3, i64 8
  %6 = getelementptr inbounds nuw i8, ptr %1, i64 8
  %7 = getelementptr inbounds nuw i8, ptr %3, i64 24
  tail call void @_ZN4llvm15SmallVectorBaseIjEC2EPvm(ptr noundef nonnull align 8 dereferenceable(64) %5, ptr noundef nonnull %7, i64 noundef 2) #27, !noalias !32
  %8 = tail call noundef zeroext i1 @_ZNK4llvm15SmallVectorBaseIjE5emptyEv(ptr noundef nonnull align 8 dereferenceable(64) %6) #27, !noalias !32
  br i1 %8, label %_ZSt11make_uniqueIN4llvm11DbgValueLocEJRS1_EENSt8__detail9_MakeUniqIT_E15__single_objectEDpOT0_.exit, label %9

9:                                                ; preds = %2
  %10 = tail call noundef nonnull align 8 dereferenceable(16) ptr @_ZN4llvm15SmallVectorImplINS_16DbgValueLocEntryEEaSERKS2_(ptr noundef nonnull align 8 dereferenceable(64) %5, ptr noundef nonnull align 8 dereferenceable(64) %6), !noalias !32
  br label %_ZSt11make_uniqueIN4llvm11DbgValueLocEJRS1_EENSt8__detail9_MakeUniqIT_E15__single_objectEDpOT0_.exit

_ZSt11make_uniqueIN4llvm11DbgValueLocEJRS1_EENSt8__detail9_MakeUniqIT_E15__single_objectEDpOT0_.exit: ; preds = %2, %9
  %11 = getelementptr inbounds nuw i8, ptr %3, i64 72
  %12 = getelementptr inbounds nuw i8, ptr %1, i64 72
  %13 = load i8, ptr %12, align 8, !noalias !32
  %14 = and i8 %13, 1
  store i8 %14, ptr %11, align 8, !noalias !32
  store ptr %3, ptr %0, align 8, !alias.scope !32
  %15 = getelementptr inbounds nuw i8, ptr %0, i64 8
  %16 = load ptr, ptr %1, align 8
  store ptr %16, ptr %15, align 8
  %17 = getelementptr inbounds nuw i8, ptr %16, i64 16
  %18 = getelementptr inbounds nuw i8, ptr %16, i64 24
  %19 = load ptr, ptr %18, align 8
  %20 = load ptr, ptr %17, align 8
  %21 = ptrtoint ptr %19 to i64
  %22 = ptrtoint ptr %20 to i64
  %23 = sub i64 %21, %22
  %24 = and i64 %23, 34359738360
  %.not = icmp eq i64 %24, 0
  br i1 %.not, label %25, label %26

25:                                               ; preds = %_ZSt11make_uniqueIN4llvm11DbgValueLocEJRS1_EENSt8__detail9_MakeUniqIT_E15__single_objectEDpOT0_.exit
  store ptr null, ptr %15, align 8
  br label %26

26:                                               ; preds = %25, %_ZSt11make_uniqueIN4llvm11DbgValueLocEJRS1_EENSt8__detail9_MakeUniqIT_E15__single_objectEDpOT0_.exit
  ret void
}